target datalayout = "e-m:e-p270:32:32-p271:32:32-p272:64:64-i64:64-i128:128-f80:128-n8:16:32:64-S128"
target triple = "x86_64-pc-linux-gnu"

@proto_register_nsip.ett = internal global [6 x ptr] [ptr @ett_nsip, ptr @ett_nsip_control_bits, ptr @ett_nsip_reset_flag, ptr @ett_nsip_end_flag, ptr @ett_nsip_ip_element, ptr @ett_nsip_ip_element_list], align 16
@.str.55 = private unnamed_addr constant [21 x i8] c"GPRS Network Service\00", align 1
@.str.56 = private unnamed_addr constant [8 x i8] c"GPRS-NS\00", align 1
@.str.57 = private unnamed_addr constant [8 x i8] c"gprs-ns\00", align 1
@proto_nsip = internal global i32 0, align 4
@.str.58 = private unnamed_addr constant [8 x i8] c"gprs_ns\00", align 1
@.str.59 = private unnamed_addr constant [5 x i8] c"nsip\00", align 1
@.str.60 = private unnamed_addr constant [10 x i8] c"udp.port1\00", align 1
@.str.61 = private unnamed_addr constant [10 x i8] c"udp.port2\00", align 1

; Function Attrs: null_pointer_is_valid sspstrong uwtable
define hidden void @proto_register_nsip() #0 {
  %1 = alloca ptr, align 8
  call void @llvm.lifetime.start.p0(i64 8, ptr %1) #5
  %2 = call i32 @proto_register_protocol(ptr noundef @.str.55, ptr noundef @.str.56, ptr noundef @.str.57)
  store i32 %2, ptr @proto_nsip, align 4
  %3 = load i32, ptr @proto_nsip, align 4
  call void @proto_register_field_array(i32 noundef %3, ptr noundef @proto_register_nsip.hf, i32 noundef 27)
  call void @proto_register_subtree_array(ptr noundef @proto_register_nsip.ett, i32 noundef 6)
  %4 = load i32, ptr @proto_nsip, align 4
  %5 = call ptr @register_dissector(ptr noundef @.str.58, ptr noundef @dissect_nsip, i32 noundef %4)
  %6 = load i32, ptr @proto_nsip, align 4
  %7 = call ptr @prefs_register_protocol(i32 noundef %6, ptr noundef null)
  store ptr %7, ptr %1, align 8
  %8 = load ptr, ptr %1, align 8
  call void @prefs_register_module_alias(ptr noundef @.str.59, ptr noundef %8)
  %9 = load ptr, ptr %1, align 8
  call void @prefs_register_obsolete_preference(ptr noundef %9, ptr noundef @.str.60)
  %10 = load ptr, ptr %1, align 8
  call void @prefs_register_obsolete_preference(ptr noundef %10, ptr noundef @.str.61)
  call void @llvm.lifetime.end.p0(i64 8, ptr %1) #5
  ret void
}