; Function Attrs: null_pointer_is_valid sspstrong uwtable
define hidden void @proto_register_nsip() local_unnamed_addr #0 {
  %1 = tail call i32 @proto_register_protocol(ptr noundef nonnull @.str.55, ptr noundef nonnull @.str.56, ptr noundef nonnull @.str.57)
  store i32 %1, ptr @proto_nsip, align 4
  tail call void @proto_register_field_array(i32 noundef %1, ptr noundef nonnull @proto_register_nsip.hf, i32 noundef 27)
  tail call void @proto_register_subtree_array(ptr noundef nonnull @proto_register_nsip.ett, i32 noundef 6)
  %2 = load i32, ptr @proto_nsip, align 4
  %3 = tail call ptr @register_dissector(ptr noundef nonnull @.str.58, ptr noundef nonnull @dissect_nsip, i32 noundef %2)
  %4 = load i32, ptr @proto_nsip, align 4
  %5 = tail call ptr @prefs_register_protocol(i32 noundef %4, ptr noundef null)
  tail call void @prefs_register_module_alias(ptr noundef nonnull @.str.59, ptr noundef %5)
  tail call void @prefs_register_obsolete_preference(ptr noundef %5, ptr noundef nonnull @.str.60)
  tail call void @prefs_register_obsolete_preference(ptr noundef %5, ptr noundef nonnull @.str.61)
  ret void
}